; Function Attrs: mustprogress uwtable
define internal void @"_ZN4absl12lts_2023080222internal_any_invocable12LocalInvokerILb0EvRZN9grpc_core11RetryFilter14LegacyCallData27StartTransportStreamOpBatchEP30grpc_transport_stream_op_batchE3$_0JEEET0_PNS1_15TypeErasedStateEDpNS1_18ForwardedParameterIT2_E4typeE"(ptr nocapture noundef readonly %state) #3 personality ptr @__gxx_personality_v0 {
entry:
  %on_commit.i.i.i.i.i.i = alloca %"class.absl::lts_20230802::AnyInvocable", align 16
  %call.val = load ptr, ptr %state, align 8
  call void @llvm.lifetime.start.p0(i64 32, ptr nonnull %on_commit.i.i.i.i.i.i)
  %on_commit_.i.i.i.i.i.i = getelementptr inbounds i8, ptr %call.val, i64 48
  %manager_.i.i.i.i.i.i.i.i.i = getelementptr inbounds i8, ptr %call.val, i64 64
  %0 = load ptr, ptr %manager_.i.i.i.i.i.i.i.i.i, align 16
  call void %0(i1 noundef zeroext false, ptr noundef nonnull %on_commit_.i.i.i.i.i.i, ptr noundef nonnull %on_commit.i.i.i.i.i.i) #26
  %1 = load ptr, ptr %manager_.i.i.i.i.i.i.i.i.i, align 16
  %manager_5.i.i.i.i.i.i.i.i.i = getelementptr inbounds i8, ptr %on_commit.i.i.i.i.i.i, i64 16
  store ptr %1, ptr %manager_5.i.i.i.i.i.i.i.i.i, align 16
  %invoker_.i.i.i.i.i.i.i.i.i = getelementptr inbounds i8, ptr %call.val, i64 72
  %2 = load ptr, ptr %invoker_.i.i.i.i.i.i.i.i.i, align 8
  %invoker_6.i.i.i.i.i.i.i.i.i = getelementptr inbounds i8, ptr %on_commit.i.i.i.i.i.i, i64 24
  store ptr %2, ptr %invoker_6.i.i.i.i.i.i.i.i.i, align 8
  store ptr @_ZN4absl12lts_2023080222internal_any_invocable12EmptyManagerENS1_14FunctionToCallEPNS1_15TypeErasedStateES4_, ptr %manager_.i.i.i.i.i.i.i.i.i, align 16
  store ptr null, ptr %invoker_.i.i.i.i.i.i.i.i.i, align 8
  %cmp.i.i.not.i.i.i.i.i.i = icmp eq ptr %2, null
  br i1 %cmp.i.i.not.i.i.i.i.i.i, label %"_ZN4absl12lts_2023080222internal_any_invocable7InvokeRIvRZN9grpc_core11RetryFilter14LegacyCallData27StartTransportStreamOpBatchEP30grpc_transport_stream_op_batchE3$_0JEvEEvOT0_DpOT1_.exit", label %if.then.i.i.i.i.i.i

if.then.i.i.i.i.i.i:                              ; preds = %entry
  invoke void %2(ptr noundef nonnull %on_commit.i.i.i.i.i.i)
          to label %if.then.if.end_crit_edge.i.i.i.i.i.i unwind label %lpad.i.i.i.i.i.i

if.then.if.end_crit_edge.i.i.i.i.i.i:             ; preds = %if.then.i.i.i.i.i.i
  %.pre.i.i.i.i.i.i = load ptr, ptr %manager_5.i.i.i.i.i.i.i.i.i, align 16
  br label %"_ZN4absl12lts_2023080222internal_any_invocable7InvokeRIvRZN9grpc_core11RetryFilter14LegacyCallData27StartTransportStreamOpBatchEP30grpc_transport_stream_op_batchE3$_0JEvEEvOT0_DpOT1_.exit"

lpad.i.i.i.i.i.i:                                 ; preds = %if.then.i.i.i.i.i.i
  %3 = landingpad { ptr, i32 }
          cleanup
  %4 = load ptr, ptr %manager_5.i.i.i.i.i.i.i.i.i, align 16
  call void %4(i1 noundef zeroext true, ptr noundef nonnull %on_commit.i.i.i.i.i.i, ptr noundef nonnull %on_commit.i.i.i.i.i.i) #26
  resume { ptr, i32 } %3

"_ZN4absl12lts_2023080222internal_any_invocable7InvokeRIvRZN9grpc_core11RetryFilter14LegacyCallData27StartTransportStreamOpBatchEP30grpc_transport_stream_op_batchE3$_0JEvEEvOT0_DpOT1_.exit": ; preds = %entry, %if.then.if.end_crit_edge.i.i.i.i.i.i
  %5 = phi ptr [ %.pre.i.i.i.i.i.i, %if.then.if.end_crit_edge.i.i.i.i.i.i ], [ %1, %entry ]
  call void %5(i1 noundef zeroext true, ptr noundef nonnull %on_commit.i.i.i.i.i.i, ptr noundef nonnull %on_commit.i.i.i.i.i.i) #26
  call void @llvm.lifetime.end.p0(i64 32, ptr nonnull %on_commit.i.i.i.i.i.i)
  ret void
}